target datalayout = "e-m:e-p270:32:32-p271:32:32-p272:64:64-i64:64-i128:128-f80:128-n8:16:32:64-S128"
target triple = "x86_64-pc-linux-gnu"

%struct.cli_ctx_tag = type { ptr, ptr, ptr, ptr, ptr, ptr, ptr, i64, ptr, i32, i32, ptr, i32, i32, ptr, [16 x i8], ptr, ptr, ptr, ptr, ptr, ptr, %struct.timeval, i8, i8 }
%struct.timeval = type { i64, i64 }
%struct.cl_fmap = type { ptr, ptr, ptr, i64, i64, i64, i64, i8, i8, i8, i64, i64, i64, i64, ptr, ptr, ptr, ptr, ptr, ptr, ptr, i8, [16 x i8], i8, [20 x i8], i8, [32 x i8], ptr, ptr }
%struct.cl_scan_options = type { i32, i32, i32, i32, i32 }
%struct.hwp5_header = type { [32 x i8], i32, i32 }
%struct.stat = type { i64, i64, i64, i32, i32, i32, i32, i64, i64, i64, i64, %struct.timespec, %struct.timespec, %struct.timespec, [3 x i64] }
%struct.timespec = type { i64, i64 }

@.str.21 = private unnamed_addr constant [42 x i8] c"HWP5.x: Invalid file descriptor argument\0A\00", align 1
@.str.22 = private unnamed_addr constant [4 x i8] c"bin\00", align 1
@.str.23 = private unnamed_addr constant [15 x i8] c"jscriptversion\00", align 1
@.str.24 = private unnamed_addr constant [15 x i8] c"defaultjscript\00", align 1
@.str.25 = private unnamed_addr constant [8 x i8] c"section\00", align 1
@.str.26 = private unnamed_addr constant [9 x i8] c"viewtext\00", align 1
@.str.27 = private unnamed_addr constant [8 x i8] c"docinfo\00", align 1
@.str.28 = private unnamed_addr constant [51 x i8] c"HWP5.x: Password encrypted stream, scanning as-is\0A\00", align 1
@.str.29 = private unnamed_addr constant [36 x i8] c"HWP5.x: Can't stat file descriptor\0A\00", align 1
@.str.30 = private unnamed_addr constant [45 x i8] c"HWP5.x: Failed to get fmap for input stream\0A\00", align 1
@.str.31 = private unnamed_addr constant [7 x i8] c"HWP5.x\00", align 1
@.str.32 = private unnamed_addr constant [25 x i8] c"_5_hwpsummaryinformation\00", align 1
@.str.33 = private unnamed_addr constant [54 x i8] c"HWP5.x: Detected a '_5_hwpsummaryinformation' stream\0A\00", align 1

; Function Attrs: inlinehint nounwind uwtable
define internal void @funmap(ptr noundef %0) #2 {
  %2 = alloca ptr, align 8
  store ptr %0, ptr %2, align 8, !tbaa !25
  %3 = load ptr, ptr %2, align 8, !tbaa !25
  %4 = getelementptr inbounds nuw %struct.cl_fmap, ptr %3, i32 0, i32 14
  %5 = load ptr, ptr %4, align 8, !tbaa !76
  %6 = load ptr, ptr %2, align 8, !tbaa !25
  call void %5(ptr noundef %6)
  ret void
}

; Function Attrs: nounwind uwtable
define i32 @cli_scanhwp5_stream(ptr noundef %0, ptr noundef %1, ptr noundef %2, i32 noundef %3, ptr noundef %4) #0 {
  %6 = alloca i32, align 4
  %7 = alloca ptr, align 8
  %8 = alloca ptr, align 8
  %9 = alloca ptr, align 8
  %10 = alloca i32, align 4
  %11 = alloca ptr, align 8
  %12 = alloca %struct.stat, align 8
  %13 = alloca ptr, align 8
  %14 = alloca i32, align 4
  %15 = alloca i32, align 4
  store ptr %0, ptr %7, align 8, !tbaa !3
  store ptr %1, ptr %8, align 8, !tbaa !31
  store ptr %2, ptr %9, align 8, !tbaa !41
  store i32 %3, ptr %10, align 4, !tbaa !28
  store ptr %4, ptr %11, align 8, !tbaa !41
  %16 = load i32, ptr %10, align 4, !tbaa !28
  %17 = icmp slt i32 %16, 0
  br i1 %17, label %18, label %19

18:                                               ; preds = %5
  call void (ptr, ...) @cli_errmsg(ptr noundef @.str.21)
  store i32 2, ptr %6, align 4
  br label %120

19:                                               ; preds = %5
  %20 = load ptr, ptr %9, align 8, !tbaa !41
  %21 = icmp ne ptr %20, null
  br i1 %21, label %22, label %114

22:                                               ; preds = %19
  %23 = load ptr, ptr %9, align 8, !tbaa !41
  %24 = call i32 @strncmp(ptr noundef %23, ptr noundef @.str.22, i64 noundef 3) #9
  %25 = icmp ne i32 %24, 0
  br i1 %25, label %26, label %46

26:                                               ; preds = %22
  %27 = load ptr, ptr %9, align 8, !tbaa !41
  %28 = call i32 @strncmp(ptr noundef %27, ptr noundef @.str.23, i64 noundef 14) #9
  %29 = icmp ne i32 %28, 0
  br i1 %29, label %30, label %46

30:                                               ; preds = %26
  %31 = load ptr, ptr %9, align 8, !tbaa !41
  %32 = call i32 @strncmp(ptr noundef %31, ptr noundef @.str.24, i64 noundef 14) #9
  %33 = icmp ne i32 %32, 0
  br i1 %33, label %34, label %46

34:                                               ; preds = %30
  %35 = load ptr, ptr %9, align 8, !tbaa !41
  %36 = call i32 @strncmp(ptr noundef %35, ptr noundef @.str.25, i64 noundef 7) #9
  %37 = icmp ne i32 %36, 0
  br i1 %37, label %38, label %46

38:                                               ; preds = %34
  %39 = load ptr, ptr %9, align 8, !tbaa !41
  %40 = call i32 @strncmp(ptr noundef %39, ptr noundef @.str.26, i64 noundef 8) #9
  %41 = icmp ne i32 %40, 0
  br i1 %41, label %42, label %46

42:                                               ; preds = %38
  %43 = load ptr, ptr %9, align 8, !tbaa !41
  %44 = call i32 @strncmp(ptr noundef %43, ptr noundef @.str.27, i64 noundef 7) #9
  %45 = icmp ne i32 %44, 0
  br i1 %45, label %85, label %46

46:                                               ; preds = %42, %38, %34, %30, %26, %22
  %47 = load ptr, ptr %8, align 8, !tbaa !31
  %48 = getelementptr inbounds nuw %struct.hwp5_header, ptr %47, i32 0, i32 2
  %49 = load i32, ptr %48, align 4, !tbaa !40
  %50 = and i32 %49, 2
  %51 = icmp ne i32 %50, 0
  br i1 %51, label %52, label %58

52:                                               ; preds = %46
  call void (ptr, ...) @cli_dbgmsg(ptr noundef @.str.28)
  %53 = load i32, ptr %10, align 4, !tbaa !28
  %54 = load ptr, ptr %11, align 8, !tbaa !41
  %55 = load ptr, ptr %7, align 8, !tbaa !3
  %56 = load ptr, ptr %9, align 8, !tbaa !41
  %57 = call i32 @cli_magic_scan_desc(i32 noundef %53, ptr noundef %54, ptr noundef %55, ptr noundef %56, i32 noundef 0)
  store i32 %57, ptr %6, align 4
  br label %120

58:                                               ; preds = %46
  %59 = load ptr, ptr %8, align 8, !tbaa !31
  %60 = getelementptr inbounds nuw %struct.hwp5_header, ptr %59, i32 0, i32 2
  %61 = load i32, ptr %60, align 4, !tbaa !40
  %62 = and i32 %61, 1
  %63 = icmp ne i32 %62, 0
  br i1 %63, label %64, label %84

64:                                               ; preds = %58
  call void @llvm.lifetime.start.p0(i64 144, ptr %12) #8
  call void @llvm.lifetime.start.p0(i64 8, ptr %13) #8
  call void @llvm.lifetime.start.p0(i64 4, ptr %14) #8
  %65 = load i32, ptr %10, align 4, !tbaa !28
  %66 = call i32 @fstat(i32 noundef %65, ptr noundef %12) #8
  %67 = icmp eq i32 %66, -1
  br i1 %67, label %68, label %69

68:                                               ; preds = %64
  call void (ptr, ...) @cli_errmsg(ptr noundef @.str.29)
  store i32 11, ptr %6, align 4
  store i32 1, ptr %15, align 4
  br label %83

69:                                               ; preds = %64
  %70 = load i32, ptr %10, align 4, !tbaa !28
  %71 = getelementptr inbounds nuw %struct.stat, ptr %12, i32 0, i32 8
  %72 = load i64, ptr %71, align 8, !tbaa !42
  %73 = call ptr @fmap(i32 noundef %70, i64 noundef 0, i64 noundef %72, ptr noundef null)
  store ptr %73, ptr %13, align 8, !tbaa !25
  %74 = load ptr, ptr %13, align 8, !tbaa !25
  %75 = icmp ne ptr %74, null
  br i1 %75, label %77, label %76

76:                                               ; preds = %69
  call void (ptr, ...) @cli_errmsg(ptr noundef @.str.30)
  store i32 19, ptr %6, align 4
  store i32 1, ptr %15, align 4
  br label %83

77:                                               ; preds = %69
  %78 = load ptr, ptr %7, align 8, !tbaa !3
  %79 = load ptr, ptr %13, align 8, !tbaa !25
  %80 = call i32 @decompress_and_callback(ptr noundef %78, ptr noundef %79, i64 noundef 0, i64 noundef 0, ptr noundef @.str.31, ptr noundef @hwp5_cb, ptr noundef null)
  store i32 %80, ptr %14, align 4, !tbaa !28
  %81 = load ptr, ptr %13, align 8, !tbaa !25
  call void @funmap(ptr noundef %81)
  %82 = load i32, ptr %14, align 4, !tbaa !28
  store i32 %82, ptr %6, align 4
  store i32 1, ptr %15, align 4
  br label %83

83:                                               ; preds = %77, %76, %68
  call void @llvm.lifetime.end.p0(i64 4, ptr %14) #8
  call void @llvm.lifetime.end.p0(i64 8, ptr %13) #8
  call void @llvm.lifetime.end.p0(i64 144, ptr %12) #8
  br label %120

84:                                               ; preds = %58
  br label %85

85:                                               ; preds = %84, %42
  %86 = load ptr, ptr %7, align 8, !tbaa !3
  %87 = getelementptr inbounds nuw %struct.cli_ctx_tag, ptr %86, i32 0, i32 8
  %88 = load ptr, ptr %87, align 8, !tbaa !33
  %89 = getelementptr inbounds nuw %struct.cl_scan_options, ptr %88, i32 0, i32 0
  %90 = load i32, ptr %89, align 4, !tbaa !34
  %91 = and i32 %90, 2
  %92 = icmp ne i32 %91, 0
  br i1 %92, label %93, label %113

93:                                               ; preds = %85
  %94 = load ptr, ptr %7, align 8, !tbaa !3
  %95 = getelementptr inbounds nuw %struct.cli_ctx_tag, ptr %94, i32 0, i32 20
  %96 = load ptr, ptr %95, align 8, !tbaa !45
  %97 = icmp ne ptr %96, null
  br i1 %97, label %98, label %113

98:                                               ; preds = %93
  %99 = load ptr, ptr %9, align 8, !tbaa !41
  %100 = icmp ne ptr %99, null
  br i1 %100, label %101, label %112

101:                                              ; preds = %98
  %102 = load ptr, ptr %9, align 8, !tbaa !41
  %103 = call i32 @strncmp(ptr noundef %102, ptr noundef @.str.32, i64 noundef 24) #9
  %104 = icmp ne i32 %103, 0
  br i1 %104, label %112, label %105

105:                                              ; preds = %101
  call void (ptr, ...) @cli_dbgmsg(ptr noundef @.str.33)
  %106 = load ptr, ptr %7, align 8, !tbaa !3
  %107 = load i32, ptr %10, align 4, !tbaa !28
  %108 = call i32 @cli_ole2_summary_json(ptr noundef %106, i32 noundef %107, i32 noundef 2)
  %109 = icmp eq i32 %108, 21
  br i1 %109, label %110, label %111

110:                                              ; preds = %105
  store i32 21, ptr %6, align 4
  br label %120

111:                                              ; preds = %105
  br label %112

112:                                              ; preds = %111, %101, %98
  br label %113

113:                                              ; preds = %112, %93, %85
  br label %114

114:                                              ; preds = %113, %19
  %115 = load i32, ptr %10, align 4, !tbaa !28
  %116 = load ptr, ptr %11, align 8, !tbaa !41
  %117 = load ptr, ptr %7, align 8, !tbaa !3
  %118 = load ptr, ptr %9, align 8, !tbaa !41
  %119 = call i32 @cli_magic_scan_desc(i32 noundef %115, ptr noundef %116, ptr noundef %117, ptr noundef %118, i32 noundef 0)
  store i32 %119, ptr %6, align 4
  br label %120

120:                                              ; preds = %114, %110, %83, %52, %18
  %121 = load i32, ptr %6, align 4
  ret i32 %121
}