; Function Attrs: nounwind uwtable
define i32 @cli_scanhwp5_stream(ptr noundef %0, ptr noundef readonly captures(none) %1, ptr noundef %2, i32 noundef %3, ptr noundef %4) local_unnamed_addr #0 {
  %6 = alloca %struct.stat, align 8
  %7 = icmp slt i32 %3, 0
  br i1 %7, label %8, label %9

8:                                                ; preds = %5
  tail call void (ptr, ...) @cli_errmsg(ptr noundef nonnull @.str.21) #10
  br label %62

9:                                                ; preds = %5
  %.not = icmp eq ptr %2, null
  br i1 %.not, label %60, label %sub_0

sub_0:                                            ; preds = %9
  %10 = load i8, ptr %2, align 1
  %.not47 = icmp eq i8 %10, 98
  br i1 %.not47, label %sub_1, label %.tail.thread

sub_1:                                            ; preds = %sub_0
  %11 = getelementptr inbounds nuw i8, ptr %2, i64 1
  %12 = load i8, ptr %11, align 1
  %.not48 = icmp eq i8 %12, 105
  br i1 %.not48, label %.tail, label %.tail.thread

.tail:                                            ; preds = %sub_1
  %13 = getelementptr inbounds nuw i8, ptr %2, i64 2
  %14 = load i8, ptr %13, align 1
  %15 = icmp eq i8 %14, 110
  br i1 %15, label %25, label %.tail.thread

.tail.thread:                                     ; preds = %sub_1, %sub_0, %.tail
  %16 = tail call i32 @strncmp(ptr noundef nonnull dereferenceable(1) %2, ptr noundef nonnull dereferenceable(15) @.str.23, i64 noundef 14) #11
  %.not36 = icmp eq i32 %16, 0
  br i1 %.not36, label %25, label %17

17:                                               ; preds = %.tail.thread
  %18 = tail call i32 @strncmp(ptr noundef nonnull dereferenceable(1) %2, ptr noundef nonnull dereferenceable(15) @.str.24, i64 noundef 14) #11
  %.not37 = icmp eq i32 %18, 0
  br i1 %.not37, label %25, label %19

19:                                               ; preds = %17
  %20 = tail call i32 @strncmp(ptr noundef nonnull dereferenceable(1) %2, ptr noundef nonnull dereferenceable(8) @.str.25, i64 noundef 7) #11
  %.not38 = icmp eq i32 %20, 0
  br i1 %.not38, label %25, label %21

21:                                               ; preds = %19
  %22 = tail call i32 @strncmp(ptr noundef nonnull dereferenceable(1) %2, ptr noundef nonnull dereferenceable(9) @.str.26, i64 noundef 8) #11
  %.not39 = icmp eq i32 %22, 0
  br i1 %.not39, label %25, label %23

23:                                               ; preds = %21
  %24 = tail call i32 @strncmp(ptr noundef nonnull dereferenceable(1) %2, ptr noundef nonnull dereferenceable(8) @.str.27, i64 noundef 7) #11
  %.not40 = icmp eq i32 %24, 0
  br i1 %.not40, label %25, label %47

25:                                               ; preds = %23, %21, %19, %17, %.tail.thread, %.tail
  %26 = getelementptr inbounds nuw i8, ptr %1, i64 36
  %27 = load i32, ptr %26, align 4, !tbaa !33
  %28 = and i32 %27, 2
  %.not41 = icmp eq i32 %28, 0
  br i1 %.not41, label %31, label %29

29:                                               ; preds = %25
  tail call void (ptr, ...) @cli_dbgmsg(ptr noundef nonnull @.str.28) #10
  %30 = tail call i32 @cli_magic_scan_desc(i32 noundef %3, ptr noundef %4, ptr noundef %0, ptr noundef nonnull %2, i32 noundef 0) #10
  br label %62

31:                                               ; preds = %25
  %32 = and i32 %27, 1
  %.not42 = icmp eq i32 %32, 0
  br i1 %.not42, label %47, label %33

33:                                               ; preds = %31
  call void @llvm.lifetime.start.p0(i64 144, ptr nonnull %6) #10
  %34 = call i32 @fstat(i32 noundef %3, ptr noundef nonnull %6) #10
  %35 = icmp eq i32 %34, -1
  br i1 %35, label %36, label %37

36:                                               ; preds = %33
  tail call void (ptr, ...) @cli_errmsg(ptr noundef nonnull @.str.29) #10
  br label %46

37:                                               ; preds = %33
  %38 = getelementptr inbounds nuw i8, ptr %6, i64 48
  %39 = load i64, ptr %38, align 8, !tbaa !34
  %40 = tail call ptr @fmap(i32 noundef %3, i64 noundef 0, i64 noundef %39, ptr noundef null) #10
  %.not43 = icmp eq ptr %40, null
  br i1 %.not43, label %41, label %42

41:                                               ; preds = %37
  tail call void (ptr, ...) @cli_errmsg(ptr noundef nonnull @.str.30) #10
  br label %46

42:                                               ; preds = %37
  %43 = tail call fastcc i32 @decompress_and_callback(ptr noundef %0, ptr noundef nonnull %40, i64 noundef 0, ptr noundef nonnull @.str.31, ptr noundef nonnull @hwp5_cb)
  %44 = getelementptr inbounds nuw i8, ptr %40, i64 96
  %45 = load ptr, ptr %44, align 8, !tbaa !37
  tail call void %45(ptr noundef nonnull %40) #10
  br label %46

46:                                               ; preds = %42, %41, %36
  %.1 = phi i32 [ 11, %36 ], [ %43, %42 ], [ 19, %41 ]
  call void @llvm.lifetime.end.p0(i64 144, ptr nonnull %6) #10
  br label %62

47:                                               ; preds = %31, %23
  %48 = getelementptr inbounds nuw i8, ptr %0, i64 64
  %49 = load ptr, ptr %48, align 8, !tbaa !27
  %50 = load i32, ptr %49, align 4, !tbaa !28
  %51 = and i32 %50, 2
  %.not44 = icmp eq i32 %51, 0
  br i1 %.not44, label %60, label %52

52:                                               ; preds = %47
  %53 = getelementptr inbounds nuw i8, ptr %0, i64 152
  %54 = load ptr, ptr %53, align 8, !tbaa !38
  %.not45 = icmp eq ptr %54, null
  br i1 %.not45, label %60, label %55

55:                                               ; preds = %52
  %56 = tail call i32 @strncmp(ptr noundef nonnull dereferenceable(1) %2, ptr noundef nonnull dereferenceable(25) @.str.32, i64 noundef 24) #11
  %.not46 = icmp eq i32 %56, 0
  br i1 %.not46, label %57, label %60

57:                                               ; preds = %55
  tail call void (ptr, ...) @cli_dbgmsg(ptr noundef nonnull @.str.33) #10
  %58 = tail call i32 @cli_ole2_summary_json(ptr noundef nonnull %0, i32 noundef %3, i32 noundef 2) #10
  %59 = icmp eq i32 %58, 21
  br i1 %59, label %62, label %60

60:                                               ; preds = %47, %52, %57, %55, %9
  %61 = tail call i32 @cli_magic_scan_desc(i32 noundef %3, ptr noundef %4, ptr noundef %0, ptr noundef %2, i32 noundef 0) #10
  br label %62

62:                                               ; preds = %57, %60, %46, %29, %8
  %.0 = phi i32 [ 2, %8 ], [ %61, %60 ], [ %30, %29 ], [ %.1, %46 ], [ 21, %57 ]
  ret i32 %.0
}